target datalayout = "e-m:e-p270:32:32-p271:32:32-p272:64:64-i64:64-i128:128-f80:128-n8:16:32:64-S128"
target triple = "x86_64-pc-linux-gnu"

%"class.icu_77::StringEnumeration" = type <{ %"class.icu_77::UObject", %"class.icu_77::UnicodeString", [32 x i8], ptr, i32, [4 x i8] }>
%"class.icu_77::UObject" = type { ptr }
%"class.icu_77::UnicodeString" = type { %"class.icu_77::Replaceable", %"union.icu_77::UnicodeString::StackBufferOrFields" }
%"class.icu_77::Replaceable" = type { %"class.icu_77::UObject" }
%"union.icu_77::UnicodeString::StackBufferOrFields" = type { %struct.anon.0, [32 x i8] }
%struct.anon.0 = type { i16, i32, i32, ptr }

; Function Attrs: inlinehint mustprogress nounwind uwtable
define linkonce_odr noundef i32 @_ZNK6icu_7713UnicodeString14getShortLengthEv(ptr noundef nonnull align 8 dereferenceable(64) %0) #1 comdat align 2 {
  %2 = alloca ptr, align 8
  store ptr %0, ptr %2, align 8, !tbaa !20
  %3 = load ptr, ptr %2, align 8
  %4 = getelementptr inbounds nuw %"class.icu_77::UnicodeString", ptr %3, i32 0, i32 1
  %5 = getelementptr inbounds nuw %struct.anon.0, ptr %4, i32 0, i32 0
  %6 = load i16, ptr %5, align 8, !tbaa !22
  %7 = sext i16 %6 to i32
  %8 = ashr i32 %7, 5
  ret i32 %8
}

; Function Attrs: inlinehint mustprogress nounwind uwtable
define linkonce_odr noundef signext i8 @_ZNK6icu_7713UnicodeString14hasShortLengthEv(ptr noundef nonnull align 8 dereferenceable(64) %0) #1 comdat align 2 {
  %2 = alloca ptr, align 8
  store ptr %0, ptr %2, align 8, !tbaa !20
  %3 = load ptr, ptr %2, align 8
  %4 = getelementptr inbounds nuw %"class.icu_77::UnicodeString", ptr %3, i32 0, i32 1
  %5 = getelementptr inbounds nuw %struct.anon.0, ptr %4, i32 0, i32 0
  %6 = load i16, ptr %5, align 8, !tbaa !22
  %7 = sext i16 %6 to i32
  %8 = icmp sge i32 %7, 0
  %9 = zext i1 %8 to i8
  ret i8 %9
}

; Function Attrs: mustprogress uwtable
define void @_ZN6icu_7717StringEnumeration19ensureCharsCapacityEiR10UErrorCode(ptr noundef nonnull align 8 dereferenceable(116) %0, i32 noundef %1, ptr noundef nonnull align 4 dereferenceable(4) %2) #0 align 2 {
  %4 = alloca ptr, align 8
  %5 = alloca i32, align 4
  %6 = alloca ptr, align 8
  store ptr %0, ptr %4, align 8, !tbaa !3
  store i32 %1, ptr %5, align 4, !tbaa !28
  store ptr %2, ptr %6, align 8, !tbaa !25
  %7 = load ptr, ptr %4, align 8
  %8 = load ptr, ptr %6, align 8, !tbaa !25
  %9 = load i32, ptr %8, align 4, !tbaa !26
  %10 = call noundef signext i8 @_ZL9U_SUCCESS10UErrorCode(i32 noundef %9)
  %11 = icmp ne i8 %10, 0
  br i1 %11, label %12, label %60

12:                                               ; preds = %3
  %13 = load i32, ptr %5, align 4, !tbaa !28
  %14 = getelementptr inbounds nuw %"class.icu_77::StringEnumeration", ptr %7, i32 0, i32 4
  %15 = load i32, ptr %14, align 8, !tbaa !17
  %16 = icmp sgt i32 %13, %15
  br i1 %16, label %17, label %60

17:                                               ; preds = %12
  %18 = load i32, ptr %5, align 4, !tbaa !28
  %19 = getelementptr inbounds nuw %"class.icu_77::StringEnumeration", ptr %7, i32 0, i32 4
  %20 = load i32, ptr %19, align 8, !tbaa !17
  %21 = getelementptr inbounds nuw %"class.icu_77::StringEnumeration", ptr %7, i32 0, i32 4
  %22 = load i32, ptr %21, align 8, !tbaa !17
  %23 = sdiv i32 %22, 2
  %24 = add nsw i32 %20, %23
  %25 = icmp slt i32 %18, %24
  br i1 %25, label %26, label %33

26:                                               ; preds = %17
  %27 = getelementptr inbounds nuw %"class.icu_77::StringEnumeration", ptr %7, i32 0, i32 4
  %28 = load i32, ptr %27, align 8, !tbaa !17
  %29 = getelementptr inbounds nuw %"class.icu_77::StringEnumeration", ptr %7, i32 0, i32 4
  %30 = load i32, ptr %29, align 8, !tbaa !17
  %31 = sdiv i32 %30, 2
  %32 = add nsw i32 %28, %31
  store i32 %32, ptr %5, align 4, !tbaa !28
  br label %33

33:                                               ; preds = %26, %17
  %34 = getelementptr inbounds nuw %"class.icu_77::StringEnumeration", ptr %7, i32 0, i32 3
  %35 = load ptr, ptr %34, align 8, !tbaa !10
  %36 = getelementptr inbounds nuw %"class.icu_77::StringEnumeration", ptr %7, i32 0, i32 2
  %37 = getelementptr inbounds [32 x i8], ptr %36, i64 0, i64 0
  %38 = icmp ne ptr %35, %37
  br i1 %38, label %39, label %42

39:                                               ; preds = %33
  %40 = getelementptr inbounds nuw %"class.icu_77::StringEnumeration", ptr %7, i32 0, i32 3
  %41 = load ptr, ptr %40, align 8, !tbaa !10
  call void @uprv_free_77(ptr noundef %41)
  br label %42

42:                                               ; preds = %39, %33
  %43 = load i32, ptr %5, align 4, !tbaa !28
  %44 = sext i32 %43 to i64
  %45 = call noalias ptr @uprv_malloc_77(i64 noundef %44) #14
  %46 = getelementptr inbounds nuw %"class.icu_77::StringEnumeration", ptr %7, i32 0, i32 3
  store ptr %45, ptr %46, align 8, !tbaa !10
  %47 = getelementptr inbounds nuw %"class.icu_77::StringEnumeration", ptr %7, i32 0, i32 3
  %48 = load ptr, ptr %47, align 8, !tbaa !10
  %49 = icmp eq ptr %48, null
  br i1 %49, label %50, label %56

50:                                               ; preds = %42
  %51 = getelementptr inbounds nuw %"class.icu_77::StringEnumeration", ptr %7, i32 0, i32 2
  %52 = getelementptr inbounds [32 x i8], ptr %51, i64 0, i64 0
  %53 = getelementptr inbounds nuw %"class.icu_77::StringEnumeration", ptr %7, i32 0, i32 3
  store ptr %52, ptr %53, align 8, !tbaa !10
  %54 = getelementptr inbounds nuw %"class.icu_77::StringEnumeration", ptr %7, i32 0, i32 4
  store i32 32, ptr %54, align 8, !tbaa !17
  %55 = load ptr, ptr %6, align 8, !tbaa !25
  store i32 7, ptr %55, align 4, !tbaa !26
  br label %59

56:                                               ; preds = %42
  %57 = load i32, ptr %5, align 4, !tbaa !28
  %58 = getelementptr inbounds nuw %"class.icu_77::StringEnumeration", ptr %7, i32 0, i32 4
  store i32 %57, ptr %58, align 8, !tbaa !17
  br label %59

59:                                               ; preds = %56, %50
  br label %60

60:                                               ; preds = %59, %12, %3
  ret void
}

; Function Attrs: inlinehint mustprogress uwtable
define linkonce_odr noundef i32 @_ZNK6icu_7713UnicodeString6lengthEv(ptr noundef nonnull align 8 dereferenceable(64) %0) #2 comdat align 2 {
  %2 = alloca ptr, align 8
  store ptr %0, ptr %2, align 8, !tbaa !20
  %3 = load ptr, ptr %2, align 8
  %4 = call noundef signext i8 @_ZNK6icu_7713UnicodeString14hasShortLengthEv(ptr noundef nonnull align 8 dereferenceable(64) %3)
  %5 = icmp ne i8 %4, 0
  br i1 %5, label %6, label %8

6:                                                ; preds = %1
  %7 = call noundef i32 @_ZNK6icu_7713UnicodeString14getShortLengthEv(ptr noundef nonnull align 8 dereferenceable(64) %3)
  br label %12

8:                                                ; preds = %1
  %9 = getelementptr inbounds nuw %"class.icu_77::UnicodeString", ptr %3, i32 0, i32 1
  %10 = getelementptr inbounds nuw %struct.anon.0, ptr %9, i32 0, i32 1
  %11 = load i32, ptr %10, align 4, !tbaa !22
  br label %12

12:                                               ; preds = %8, %6
  %13 = phi i32 [ %7, %6 ], [ %11, %8 ]
  ret i32 %13
}

; Function Attrs: inlinehint mustprogress nounwind uwtable
define internal noundef signext i8 @_ZL9U_SUCCESS10UErrorCode(i32 noundef %0) #1 {
  %2 = alloca i32, align 4
  store i32 %0, ptr %2, align 4, !tbaa !26
  %3 = load i32, ptr %2, align 4, !tbaa !26
  %4 = icmp sle i32 %3, 0
  %5 = zext i1 %4 to i8
  ret i8 %5
}

; Function Attrs: mustprogress uwtable
define noundef ptr @_ZN6icu_7717StringEnumeration4nextEPiR10UErrorCode(ptr noundef nonnull align 8 dereferenceable(116) %0, ptr noundef %1, ptr noundef nonnull align 4 dereferenceable(4) %2) unnamed_addr #0 align 2 {
  %4 = alloca ptr, align 8
  %5 = alloca ptr, align 8
  %6 = alloca ptr, align 8
  %7 = alloca ptr, align 8
  %8 = alloca ptr, align 8
  %9 = alloca i32, align 4
  store ptr %0, ptr %5, align 8, !tbaa !3
  store ptr %1, ptr %6, align 8, !tbaa !23
  store ptr %2, ptr %7, align 8, !tbaa !25
  %10 = load ptr, ptr %5, align 8
  call void @llvm.lifetime.start.p0(i64 8, ptr %8) #12
  %11 = load ptr, ptr %7, align 8, !tbaa !25
  %12 = load ptr, ptr %10, align 8, !tbaa !8
  %13 = getelementptr inbounds ptr, ptr %12, i64 7
  %14 = load ptr, ptr %13, align 8
  %15 = call noundef ptr %14(ptr noundef nonnull align 8 dereferenceable(116) %10, ptr noundef nonnull align 4 dereferenceable(4) %11)
  store ptr %15, ptr %8, align 8, !tbaa !20
  %16 = load ptr, ptr %7, align 8, !tbaa !25
  %17 = load i32, ptr %16, align 4, !tbaa !26
  %18 = call noundef signext i8 @_ZL9U_SUCCESS10UErrorCode(i32 noundef %17)
  %19 = icmp ne i8 %18, 0
  br i1 %19, label %20, label %52

20:                                               ; preds = %3
  %21 = load ptr, ptr %8, align 8, !tbaa !20
  %22 = icmp ne ptr %21, null
  br i1 %22, label %23, label %52

23:                                               ; preds = %20
  %24 = load ptr, ptr %8, align 8, !tbaa !20
  %25 = getelementptr inbounds nuw %"class.icu_77::StringEnumeration", ptr %10, i32 0, i32 1
  %26 = call noundef nonnull align 8 dereferenceable(64) ptr @_ZN6icu_7713UnicodeStringaSERKS0_(ptr noundef nonnull align 8 dereferenceable(64) %25, ptr noundef nonnull align 8 dereferenceable(64) %24)
  %27 = getelementptr inbounds nuw %"class.icu_77::StringEnumeration", ptr %10, i32 0, i32 1
  %28 = call noundef i32 @_ZNK6icu_7713UnicodeString6lengthEv(ptr noundef nonnull align 8 dereferenceable(64) %27)
  %29 = add nsw i32 %28, 1
  %30 = load ptr, ptr %7, align 8, !tbaa !25
  call void @_ZN6icu_7717StringEnumeration19ensureCharsCapacityEiR10UErrorCode(ptr noundef nonnull align 8 dereferenceable(116) %10, i32 noundef %29, ptr noundef nonnull align 4 dereferenceable(4) %30)
  %31 = load ptr, ptr %7, align 8, !tbaa !25
  %32 = load i32, ptr %31, align 4, !tbaa !26
  %33 = call noundef signext i8 @_ZL9U_SUCCESS10UErrorCode(i32 noundef %32)
  %34 = icmp ne i8 %33, 0
  br i1 %34, label %35, label %51

35:                                               ; preds = %23
  %36 = load ptr, ptr %6, align 8, !tbaa !23
  %37 = icmp ne ptr %36, null
  br i1 %37, label %38, label %42

38:                                               ; preds = %35
  %39 = getelementptr inbounds nuw %"class.icu_77::StringEnumeration", ptr %10, i32 0, i32 1
  %40 = call noundef i32 @_ZNK6icu_7713UnicodeString6lengthEv(ptr noundef nonnull align 8 dereferenceable(64) %39)
  %41 = load ptr, ptr %6, align 8, !tbaa !23
  store i32 %40, ptr %41, align 4, !tbaa !28
  br label %42

42:                                               ; preds = %38, %35
  %43 = getelementptr inbounds nuw %"class.icu_77::StringEnumeration", ptr %10, i32 0, i32 1
  %44 = getelementptr inbounds nuw %"class.icu_77::StringEnumeration", ptr %10, i32 0, i32 3
  %45 = load ptr, ptr %44, align 8, !tbaa !10
  %46 = getelementptr inbounds nuw %"class.icu_77::StringEnumeration", ptr %10, i32 0, i32 4
  %47 = load i32, ptr %46, align 8, !tbaa !17
  %48 = call noundef i32 @_ZNK6icu_7713UnicodeString7extractEiiPciNS0_10EInvariantE(ptr noundef nonnull align 8 dereferenceable(64) %43, i32 noundef 0, i32 noundef 2147483647, ptr noundef %45, i32 noundef %47, i32 noundef 0)
  %49 = getelementptr inbounds nuw %"class.icu_77::StringEnumeration", ptr %10, i32 0, i32 3
  %50 = load ptr, ptr %49, align 8, !tbaa !10
  store ptr %50, ptr %4, align 8
  store i32 1, ptr %9, align 4
  br label %53

51:                                               ; preds = %23
  br label %52

52:                                               ; preds = %51, %20, %3
  store ptr null, ptr %4, align 8
  store i32 1, ptr %9, align 4
  br label %53

53:                                               ; preds = %52, %42
  call void @llvm.lifetime.end.p0(i64 8, ptr %8) #12
  %54 = load ptr, ptr %4, align 8
  ret ptr %54
}