; Function Attrs: mustprogress uwtable
define noundef ptr @_ZN6icu_7717StringEnumeration4nextEPiR10UErrorCode(ptr noundef nonnull align 8 dereferenceable(116) %0, ptr noundef writeonly %1, ptr noundef nonnull align 4 dereferenceable(4) %2) unnamed_addr #9 align 2 {
  %4 = load ptr, ptr %0, align 8, !tbaa !3
  %5 = getelementptr inbounds nuw i8, ptr %4, i64 56
  %6 = load ptr, ptr %5, align 8
  %7 = tail call noundef ptr %6(ptr noundef nonnull align 8 dereferenceable(116) %0, ptr noundef nonnull align 4 dereferenceable(4) %2)
  %8 = load i32, ptr %2, align 4, !tbaa !17
  %9 = icmp slt i32 %8, 1
  %10 = icmp ne ptr %7, null
  %or.cond = and i1 %10, %9
  br i1 %or.cond, label %11, label %_ZN6icu_7717StringEnumeration19ensureCharsCapacityEiR10UErrorCode.exit.thread

11:                                               ; preds = %3
  %12 = getelementptr inbounds nuw i8, ptr %0, i64 8
  %13 = tail call noundef nonnull align 8 dereferenceable(64) ptr @_ZN6icu_7713UnicodeStringaSERKS0_(ptr noundef nonnull align 8 dereferenceable(64) %12, ptr noundef nonnull align 8 dereferenceable(64) %7)
  %14 = getelementptr inbounds nuw i8, ptr %0, i64 16
  %15 = load i16, ptr %14, align 8, !tbaa !6
  %16 = icmp slt i16 %15, 0
  %17 = ashr i16 %15, 5
  %18 = sext i16 %17 to i32
  %19 = getelementptr inbounds nuw i8, ptr %0, i64 20
  %20 = load i32, ptr %19, align 4
  %21 = select i1 %16, i32 %20, i32 %18
  %22 = add nsw i32 %21, 1
  %23 = load i32, ptr %2, align 4, !tbaa !17
  %24 = icmp sgt i32 %23, 0
  br i1 %24, label %_ZN6icu_7717StringEnumeration19ensureCharsCapacityEiR10UErrorCode.exit.thread, label %25

25:                                               ; preds = %11
  %26 = getelementptr inbounds nuw i8, ptr %0, i64 112
  %27 = load i32, ptr %26, align 8, !tbaa !16
  %.not14 = icmp slt i32 %21, %27
  br i1 %.not14, label %_ZN6icu_7717StringEnumeration19ensureCharsCapacityEiR10UErrorCode.exit.thread15, label %28

28:                                               ; preds = %25
  %29 = sdiv i32 %27, 2
  %30 = add nsw i32 %29, %27
  %spec.select.i = tail call i32 @llvm.smax.i32(i32 %22, i32 %30)
  %31 = getelementptr inbounds nuw i8, ptr %0, i64 104
  %32 = load ptr, ptr %31, align 8, !tbaa !8
  %33 = getelementptr inbounds nuw i8, ptr %0, i64 72
  %.not10.i = icmp eq ptr %32, %33
  br i1 %.not10.i, label %35, label %34

34:                                               ; preds = %28
  tail call void @uprv_free_77(ptr noundef %32)
  br label %35

35:                                               ; preds = %34, %28
  %36 = sext i32 %spec.select.i to i64
  %37 = tail call noalias ptr @uprv_malloc_77(i64 noundef %36) #20
  store ptr %37, ptr %31, align 8, !tbaa !8
  %38 = icmp eq ptr %37, null
  br i1 %38, label %39, label %_ZN6icu_7717StringEnumeration19ensureCharsCapacityEiR10UErrorCode.exit

39:                                               ; preds = %35
  store ptr %33, ptr %31, align 8, !tbaa !8
  store i32 32, ptr %26, align 8, !tbaa !16
  store i32 7, ptr %2, align 4, !tbaa !17
  br label %_ZN6icu_7717StringEnumeration19ensureCharsCapacityEiR10UErrorCode.exit.thread

_ZN6icu_7717StringEnumeration19ensureCharsCapacityEiR10UErrorCode.exit: ; preds = %35
  store i32 %spec.select.i, ptr %26, align 8, !tbaa !16
  %.pre = load i32, ptr %2, align 4, !tbaa !17
  %40 = icmp sgt i32 %.pre, 0
  br i1 %40, label %_ZN6icu_7717StringEnumeration19ensureCharsCapacityEiR10UErrorCode.exit.thread, label %_ZN6icu_7717StringEnumeration19ensureCharsCapacityEiR10UErrorCode.exit.thread15

_ZN6icu_7717StringEnumeration19ensureCharsCapacityEiR10UErrorCode.exit.thread15: ; preds = %25, %_ZN6icu_7717StringEnumeration19ensureCharsCapacityEiR10UErrorCode.exit
  %.not13 = icmp eq ptr %1, null
  br i1 %.not13, label %48, label %41

41:                                               ; preds = %_ZN6icu_7717StringEnumeration19ensureCharsCapacityEiR10UErrorCode.exit.thread15
  %42 = load i16, ptr %14, align 8, !tbaa !6
  %43 = icmp slt i16 %42, 0
  %44 = ashr i16 %42, 5
  %45 = sext i16 %44 to i32
  %46 = load i32, ptr %19, align 4
  %47 = select i1 %43, i32 %46, i32 %45
  store i32 %47, ptr %1, align 4, !tbaa !19
  br label %48

48:                                               ; preds = %41, %_ZN6icu_7717StringEnumeration19ensureCharsCapacityEiR10UErrorCode.exit.thread15
  %49 = getelementptr inbounds nuw i8, ptr %0, i64 104
  %50 = load ptr, ptr %49, align 8, !tbaa !8
  %51 = getelementptr inbounds nuw i8, ptr %0, i64 112
  %52 = load i32, ptr %51, align 8, !tbaa !16
  %53 = tail call noundef i32 @_ZNK6icu_7713UnicodeString7extractEiiPciNS0_10EInvariantE(ptr noundef nonnull align 8 dereferenceable(64) %12, i32 noundef 0, i32 noundef 2147483647, ptr noundef %50, i32 noundef %52, i32 noundef 0)
  %54 = load ptr, ptr %49, align 8, !tbaa !8
  br label %_ZN6icu_7717StringEnumeration19ensureCharsCapacityEiR10UErrorCode.exit.thread

_ZN6icu_7717StringEnumeration19ensureCharsCapacityEiR10UErrorCode.exit.thread: ; preds = %39, %11, %3, %_ZN6icu_7717StringEnumeration19ensureCharsCapacityEiR10UErrorCode.exit, %48
  %.0 = phi ptr [ %54, %48 ], [ null, %_ZN6icu_7717StringEnumeration19ensureCharsCapacityEiR10UErrorCode.exit ], [ null, %3 ], [ null, %11 ], [ null, %39 ]
  ret ptr %.0
}